target datalayout = "e-m:e-p270:32:32-p271:32:32-p272:64:64-i64:64-i128:128-f80:128-n8:16:32:64-S128"
target triple = "x86_64-unknown-linux-gnu"

%"struct.pbrt::TextureEvalContext" = type { %"class.pbrt::Point3", %"class.pbrt::Vector3", %"class.pbrt::Vector3", %"class.pbrt::Normal3", %"class.pbrt::Point2", float, float, float, float, i32 }
%"class.pbrt::Point3" = type { %"class.pbrt::Tuple3" }
%"class.pbrt::Tuple3" = type { float, float, float }
%"class.pbrt::Vector3" = type { %"class.pbrt::Tuple3.0" }
%"class.pbrt::Tuple3.0" = type { float, float, float }
%"class.pbrt::Normal3" = type { %"class.pbrt::Tuple3.1" }
%"class.pbrt::Tuple3.1" = type { float, float, float }
%"class.pbrt::Point2" = type { %"class.pbrt::Tuple2" }
%"class.pbrt::Tuple2" = type { float, float }

; Function Attrs: mustprogress uwtable
define dso_local noundef float @_ZNK4pbrt16FloatPtexTexture8EvaluateENS_18TextureEvalContextE(ptr noundef nonnull align 8 dereferenceable(52) %this, ptr noundef byval(%"struct.pbrt::TextureEvalContext") align 8 %ctx) #1 align 2 {
entry:
  %retval = alloca float, align 4
  %this.addr = alloca ptr, align 8
  %result = alloca [3 x float], align 4
  %nc = alloca i32, align 4
  %agg.tmp = alloca %"struct.pbrt::TextureEvalContext", align 8
  store ptr %this, ptr %this.addr, align 8
  %this1 = load ptr, ptr %this.addr, align 8
  call void @llvm.memcpy.p0.p0.i64(ptr align 4 %agg.tmp, ptr align 8 %ctx, i64 76, i1 false)
  %arraydecay = getelementptr inbounds [3 x float], ptr %result, i64 0, i64 0
  %call = call noundef i32 @_ZNK4pbrt15PtexTextureBase13SampleTextureENS_18TextureEvalContextEPf(ptr noundef nonnull align 8 dereferenceable(52) %this1, ptr noundef byval(%"struct.pbrt::TextureEvalContext") align 8 %agg.tmp, ptr noundef %arraydecay)
  store i32 %call, ptr %nc, align 4
  %0 = load i32, ptr %nc, align 4
  %cmp = icmp eq i32 %0, 1
  br i1 %cmp, label %if.then, label %if.end

if.then:                                          ; preds = %entry
  %arrayidx = getelementptr inbounds [3 x float], ptr %result, i64 0, i64 0
  %1 = load float, ptr %arrayidx, align 4
  store float %1, ptr %retval, align 4
  br label %return

if.end:                                           ; preds = %entry
  br label %do.body

do.body:                                          ; preds = %if.end
  br label %do.end

do.end:                                           ; preds = %do.body
  %arrayidx2 = getelementptr inbounds [3 x float], ptr %result, i64 0, i64 0
  %2 = load float, ptr %arrayidx2, align 4
  %arrayidx3 = getelementptr inbounds [3 x float], ptr %result, i64 0, i64 1
  %3 = load float, ptr %arrayidx3, align 4
  %add = fadd float %2, %3
  %arrayidx4 = getelementptr inbounds [3 x float], ptr %result, i64 0, i64 2
  %4 = load float, ptr %arrayidx4, align 4
  %add5 = fadd float %add, %4
  %div = fdiv float %add5, 3.000000e+00
  store float %div, ptr %retval, align 4
  br label %return

return:                                           ; preds = %do.end, %if.then
  %5 = load float, ptr %retval, align 4
  ret float %5
}