; Function Attrs: mustprogress uwtable
define dso_local noundef float @_ZNK4pbrt16FloatPtexTexture8EvaluateENS_18TextureEvalContextE(ptr noundef nonnull align 8 dereferenceable(52) %this, ptr nocapture noundef readonly byval(%"struct.pbrt::TextureEvalContext") align 8 %ctx) local_unnamed_addr #0 align 2 {
entry:
  %result = alloca [3 x float], align 4
  %call = call noundef i32 @_ZNK4pbrt15PtexTextureBase13SampleTextureENS_18TextureEvalContextEPf(ptr noundef nonnull align 8 dereferenceable(52) %this, ptr noundef nonnull byval(%"struct.pbrt::TextureEvalContext") align 8 %ctx, ptr noundef nonnull %result)
  %cmp = icmp eq i32 %call, 1
  %0 = load float, ptr %result, align 4
  br i1 %cmp, label %return, label %do.end

do.end:                                           ; preds = %entry
  %arrayidx3 = getelementptr inbounds i8, ptr %result, i64 4
  %1 = load float, ptr %arrayidx3, align 4
  %add = fadd float %0, %1
  %arrayidx4 = getelementptr inbounds i8, ptr %result, i64 8
  %2 = load float, ptr %arrayidx4, align 4
  %add5 = fadd float %add, %2
  %div = fdiv float %add5, 3.000000e+00
  br label %return

return:                                           ; preds = %entry, %do.end
  %retval.0 = phi float [ %div, %do.end ], [ %0, %entry ]
  ret float %retval.0
}